target datalayout = "e-m:e-p270:32:32-p271:32:32-p272:64:64-i64:64-i128:128-f80:128-n8:16:32:64-S128"
target triple = "x86_64-pc-linux-gnu"

%struct._value_string = type { i32, ptr }
%struct._e_guid_t = type { i32, i16, i16, [8 x i8] }
%struct._packet_info = type { ptr, ptr, i32, i32, %struct.nstime_t, %struct.nstime_t, %struct.nstime_t, i32, ptr, ptr, ptr, ptr, %struct._address, %struct._address, %struct._address, %struct._address, %struct._address, %struct._address, i32, ptr, i32, %struct.anon, i32, i32, i32, i32, ptr, i32, ptr, ptr, i16, i16, i32, i32, i16, i32, i32, ptr, ptr, ptr, i8, i8, i16, i16, i16, i32, i16, i16, ptr, ptr, ptr, ptr, ptr, i32 }
%struct.nstime_t = type { i64, i32 }
%struct._address = type { i32, i32, ptr, ptr }
%struct.anon = type { i8, [3 x i8] }

@hf_remact_interface_data = internal global i32 0, align 4
@hf_remact_oxid_bindings = internal global i32 0, align 4
@hf_remact_authn_hint = internal global i32 0, align 4
@hf_dcom_oxid = external global i32, align 4
@hf_dcom_ipid = external global i32, align 4
@.str.26 = private unnamed_addr constant [8 x i8] c" %s[%u]\00", align 1
@dcom_hresult_vals = external constant [0 x %struct._value_string], align 8
@.str.27 = private unnamed_addr constant [17 x i8] c"Unknown (0x%08x)\00", align 1
@.str.28 = private unnamed_addr constant [7 x i8] c" -> %s\00", align 1

; Function Attrs: nounwind uwtable
define internal i32 @dissect_remact_remote_activation_resp(ptr noundef %0, i32 noundef %1, ptr noundef %2, ptr noundef %3, ptr noundef %4, ptr noundef %5) #0 {
  %7 = alloca ptr, align 8
  %8 = alloca i32, align 4
  %9 = alloca ptr, align 8
  %10 = alloca ptr, align 8
  %11 = alloca ptr, align 8
  %12 = alloca ptr, align 8
  %13 = alloca i32, align 4
  %14 = alloca %struct._e_guid_t, align 4
  %15 = alloca i32, align 4
  %16 = alloca i16, align 2
  %17 = alloca i16, align 2
  %18 = alloca i32, align 4
  %19 = alloca i32, align 4
  %20 = alloca i32, align 4
  %21 = alloca i32, align 4
  store ptr %0, ptr %7, align 8
  store i32 %1, ptr %8, align 4
  store ptr %2, ptr %9, align 8
  store ptr %3, ptr %10, align 8
  store ptr %4, ptr %11, align 8
  store ptr %5, ptr %12, align 8
  %22 = load ptr, ptr %7, align 8
  %23 = load i32, ptr %8, align 4
  %24 = load ptr, ptr %9, align 8
  %25 = load ptr, ptr %10, align 8
  %26 = load ptr, ptr %11, align 8
  %27 = load ptr, ptr %12, align 8
  %28 = call i32 @dissect_dcom_that(ptr noundef %22, i32 noundef %23, ptr noundef %24, ptr noundef %25, ptr noundef %26, ptr noundef %27)
  store i32 %28, ptr %8, align 4
  %29 = load ptr, ptr %7, align 8
  %30 = load i32, ptr %8, align 4
  %31 = load ptr, ptr %9, align 8
  %32 = load ptr, ptr %10, align 8
  %33 = load ptr, ptr %11, align 8
  %34 = load ptr, ptr %12, align 8
  %35 = load i32, ptr @hf_dcom_oxid, align 4
  %36 = call i32 @dissect_ndr_duint32(ptr noundef %29, i32 noundef %30, ptr noundef %31, ptr noundef %32, ptr noundef %33, ptr noundef %34, i32 noundef %35, ptr noundef null)
  store i32 %36, ptr %8, align 4
  %37 = load ptr, ptr %7, align 8
  %38 = load i32, ptr %8, align 4
  %39 = load ptr, ptr %9, align 8
  %40 = load ptr, ptr %10, align 8
  %41 = load ptr, ptr %11, align 8
  %42 = load ptr, ptr %12, align 8
  %43 = call i32 @dissect_dcom_dcerpc_pointer(ptr noundef %37, i32 noundef %38, ptr noundef %39, ptr noundef %40, ptr noundef %41, ptr noundef %42, ptr noundef %13)
  store i32 %43, ptr %8, align 4
  %44 = load i32, ptr %13, align 4
  %45 = icmp ne i32 %44, 0
  br i1 %45, label %46, label %62

46:                                               ; preds = %6
  %47 = load ptr, ptr %7, align 8
  %48 = load i32, ptr %8, align 4
  %49 = load ptr, ptr %9, align 8
  %50 = load ptr, ptr %10, align 8
  %51 = load ptr, ptr %11, align 8
  %52 = load ptr, ptr %12, align 8
  %53 = call i32 @dissect_dcom_dcerpc_array_size(ptr noundef %47, i32 noundef %48, ptr noundef %49, ptr noundef %50, ptr noundef %51, ptr noundef %52, ptr noundef %19)
  store i32 %53, ptr %8, align 4
  %54 = load ptr, ptr %7, align 8
  %55 = load i32, ptr %8, align 4
  %56 = load ptr, ptr %9, align 8
  %57 = load ptr, ptr %10, align 8
  %58 = load ptr, ptr %11, align 8
  %59 = load ptr, ptr %12, align 8
  %60 = load i32, ptr @hf_remact_oxid_bindings, align 4
  %61 = call i32 @dissect_dcom_DUALSTRINGARRAY(ptr noundef %54, i32 noundef %55, ptr noundef %56, ptr noundef %57, ptr noundef %58, ptr noundef %59, i32 noundef %60, ptr noundef null)
  store i32 %61, ptr %8, align 4
  br label %62

62:                                               ; preds = %46, %6
  %63 = load ptr, ptr %7, align 8
  %64 = load i32, ptr %8, align 4
  %65 = load ptr, ptr %9, align 8
  %66 = load ptr, ptr %10, align 8
  %67 = load ptr, ptr %11, align 8
  %68 = load ptr, ptr %12, align 8
  %69 = load i32, ptr @hf_dcom_ipid, align 4
  %70 = call i32 @dissect_dcom_UUID(ptr noundef %63, i32 noundef %64, ptr noundef %65, ptr noundef %66, ptr noundef %67, ptr noundef %68, i32 noundef %69, ptr noundef %14)
  store i32 %70, ptr %8, align 4
  %71 = load ptr, ptr %7, align 8
  %72 = load i32, ptr %8, align 4
  %73 = load ptr, ptr %9, align 8
  %74 = load ptr, ptr %10, align 8
  %75 = load ptr, ptr %11, align 8
  %76 = load ptr, ptr %12, align 8
  %77 = load i32, ptr @hf_remact_authn_hint, align 4
  %78 = call i32 @dissect_ndr_uint32(ptr noundef %71, i32 noundef %72, ptr noundef %73, ptr noundef %74, ptr noundef %75, ptr noundef %76, i32 noundef %77, ptr noundef %15)
  store i32 %78, ptr %8, align 4
  %79 = load ptr, ptr %7, align 8
  %80 = load i32, ptr %8, align 4
  %81 = load ptr, ptr %9, align 8
  %82 = load ptr, ptr %10, align 8
  %83 = load ptr, ptr %11, align 8
  %84 = load ptr, ptr %12, align 8
  %85 = call i32 @dissect_dcom_COMVERSION(ptr noundef %79, i32 noundef %80, ptr noundef %81, ptr noundef %82, ptr noundef %83, ptr noundef %84, ptr noundef %16, ptr noundef %17)
  store i32 %85, ptr %8, align 4
  %86 = load ptr, ptr %7, align 8
  %87 = load i32, ptr %8, align 4
  %88 = load ptr, ptr %9, align 8
  %89 = load ptr, ptr %10, align 8
  %90 = load ptr, ptr %11, align 8
  %91 = load ptr, ptr %12, align 8
  %92 = call i32 @dissect_dcom_HRESULT(ptr noundef %86, i32 noundef %87, ptr noundef %88, ptr noundef %89, ptr noundef %90, ptr noundef %91, ptr noundef %18)
  store i32 %92, ptr %8, align 4
  %93 = load ptr, ptr %7, align 8
  %94 = load i32, ptr %8, align 4
  %95 = load ptr, ptr %9, align 8
  %96 = load ptr, ptr %10, align 8
  %97 = load ptr, ptr %11, align 8
  %98 = load ptr, ptr %12, align 8
  %99 = call i32 @dissect_dcom_dcerpc_array_size(ptr noundef %93, i32 noundef %94, ptr noundef %95, ptr noundef %96, ptr noundef %97, ptr noundef %98, ptr noundef %19)
  store i32 %99, ptr %8, align 4
  %100 = load i32, ptr %8, align 4
  %101 = load i32, ptr %19, align 4
  %102 = mul i32 %101, 4
  %103 = add i32 %100, %102
  store i32 %103, ptr %21, align 4
  br label %104

104:                                              ; preds = %127, %62
  %105 = load i32, ptr %19, align 4
  %106 = add i32 %105, -1
  store i32 %106, ptr %19, align 4
  %107 = icmp ne i32 %105, 0
  br i1 %107, label %108, label %128

108:                                              ; preds = %104
  %109 = load ptr, ptr %7, align 8
  %110 = load i32, ptr %8, align 4
  %111 = load ptr, ptr %9, align 8
  %112 = load ptr, ptr %10, align 8
  %113 = load ptr, ptr %11, align 8
  %114 = load ptr, ptr %12, align 8
  %115 = call i32 @dissect_dcom_dcerpc_pointer(ptr noundef %109, i32 noundef %110, ptr noundef %111, ptr noundef %112, ptr noundef %113, ptr noundef %114, ptr noundef %13)
  store i32 %115, ptr %8, align 4
  %116 = load i32, ptr %13, align 4
  %117 = icmp ne i32 %116, 0
  br i1 %117, label %118, label %127

118:                                              ; preds = %108
  %119 = load ptr, ptr %7, align 8
  %120 = load i32, ptr %21, align 4
  %121 = load ptr, ptr %9, align 8
  %122 = load ptr, ptr %10, align 8
  %123 = load ptr, ptr %11, align 8
  %124 = load ptr, ptr %12, align 8
  %125 = load i32, ptr @hf_remact_interface_data, align 4
  %126 = call i32 @dissect_dcom_MInterfacePointer(ptr noundef %119, i32 noundef %120, ptr noundef %121, ptr noundef %122, ptr noundef %123, ptr noundef %124, i32 noundef %125, ptr noundef null)
  store i32 %126, ptr %21, align 4
  br label %127

127:                                              ; preds = %118, %108
  br label %104, !llvm.loop !7

128:                                              ; preds = %104
  %129 = load i32, ptr %21, align 4
  store i32 %129, ptr %8, align 4
  %130 = load ptr, ptr %7, align 8
  %131 = load i32, ptr %8, align 4
  %132 = load ptr, ptr %9, align 8
  %133 = load ptr, ptr %10, align 8
  %134 = load ptr, ptr %11, align 8
  %135 = load ptr, ptr %12, align 8
  %136 = call i32 @dissect_dcom_dcerpc_array_size(ptr noundef %130, i32 noundef %131, ptr noundef %132, ptr noundef %133, ptr noundef %134, ptr noundef %135, ptr noundef %19)
  store i32 %136, ptr %8, align 4
  store i32 1, ptr %20, align 4
  br label %137

137:                                              ; preds = %141, %128
  %138 = load i32, ptr %19, align 4
  %139 = add i32 %138, -1
  store i32 %139, ptr %19, align 4
  %140 = icmp ne i32 %138, 0
  br i1 %140, label %141, label %158

141:                                              ; preds = %137
  %142 = load ptr, ptr %7, align 8
  %143 = load i32, ptr %8, align 4
  %144 = load ptr, ptr %9, align 8
  %145 = load ptr, ptr %10, align 8
  %146 = load ptr, ptr %11, align 8
  %147 = load ptr, ptr %12, align 8
  %148 = load i32, ptr %20, align 4
  %149 = call i32 @dissect_dcom_indexed_HRESULT(ptr noundef %142, i32 noundef %143, ptr noundef %144, ptr noundef %145, ptr noundef %146, ptr noundef %147, ptr noundef %18, i32 noundef %148)
  store i32 %149, ptr %8, align 4
  %150 = load ptr, ptr %9, align 8
  %151 = getelementptr inbounds %struct._packet_info, ptr %150, i32 0, i32 1
  %152 = load ptr, ptr %151, align 8
  %153 = load i32, ptr %18, align 4
  %154 = call ptr @val_to_str(i32 noundef %153, ptr noundef @dcom_hresult_vals, ptr noundef @.str.27)
  %155 = load i32, ptr %20, align 4
  call void (ptr, i32, ptr, ...) @col_append_fstr(ptr noundef %152, i32 noundef 25, ptr noundef @.str.26, ptr noundef %154, i32 noundef %155)
  %156 = load i32, ptr %20, align 4
  %157 = add i32 %156, 1
  store i32 %157, ptr %20, align 4
  br label %137, !llvm.loop !8

158:                                              ; preds = %137
  %159 = load ptr, ptr %7, align 8
  %160 = load i32, ptr %8, align 4
  %161 = load ptr, ptr %9, align 8
  %162 = load ptr, ptr %10, align 8
  %163 = load ptr, ptr %11, align 8
  %164 = load ptr, ptr %12, align 8
  %165 = call i32 @dissect_dcom_HRESULT(ptr noundef %159, i32 noundef %160, ptr noundef %161, ptr noundef %162, ptr noundef %163, ptr noundef %164, ptr noundef %18)
  store i32 %165, ptr %8, align 4
  %166 = load ptr, ptr %9, align 8
  %167 = getelementptr inbounds %struct._packet_info, ptr %166, i32 0, i32 1
  %168 = load ptr, ptr %167, align 8
  %169 = load i32, ptr %18, align 4
  %170 = call ptr @val_to_str(i32 noundef %169, ptr noundef @dcom_hresult_vals, ptr noundef @.str.27)
  call void (ptr, i32, ptr, ...) @col_append_fstr(ptr noundef %168, i32 noundef 25, ptr noundef @.str.28, ptr noundef %170)
  %171 = load i32, ptr %8, align 4
  ret i32 %171
}