; Function Attrs: nounwind uwtable
define internal i32 @dissect_remact_remote_activation_resp(ptr noundef %0, i32 noundef %1, ptr noundef %2, ptr noundef %3, ptr noundef %4, ptr noundef %5) #0 {
  %7 = alloca i32, align 4
  %8 = alloca %struct._e_guid_t, align 4
  %9 = alloca i32, align 4
  %10 = alloca i16, align 2
  %11 = alloca i16, align 2
  %12 = alloca i32, align 4
  %13 = alloca i32, align 4
  %14 = tail call i32 @dissect_dcom_that(ptr noundef %0, i32 noundef %1, ptr noundef %2, ptr noundef %3, ptr noundef %4, ptr noundef %5) #3
  %15 = load i32, ptr @hf_dcom_oxid, align 4
  %16 = tail call i32 @dissect_ndr_duint32(ptr noundef %0, i32 noundef %14, ptr noundef %2, ptr noundef %3, ptr noundef %4, ptr noundef %5, i32 noundef %15, ptr noundef null) #3
  %17 = call i32 @dissect_dcom_dcerpc_pointer(ptr noundef %0, i32 noundef %16, ptr noundef %2, ptr noundef %3, ptr noundef %4, ptr noundef %5, ptr noundef nonnull %7) #3
  %18 = load i32, ptr %7, align 4
  %.not = icmp eq i32 %18, 0
  br i1 %.not, label %23, label %19

19:                                               ; preds = %6
  %20 = call i32 @dissect_dcom_dcerpc_array_size(ptr noundef %0, i32 noundef %17, ptr noundef %2, ptr noundef %3, ptr noundef %4, ptr noundef %5, ptr noundef nonnull %13) #3
  %21 = load i32, ptr @hf_remact_oxid_bindings, align 4
  %22 = call i32 @dissect_dcom_DUALSTRINGARRAY(ptr noundef %0, i32 noundef %20, ptr noundef %2, ptr noundef %3, ptr noundef %4, ptr noundef %5, i32 noundef %21, ptr noundef null) #3
  br label %23

23:                                               ; preds = %19, %6
  %.098 = phi i32 [ %22, %19 ], [ %17, %6 ]
  %24 = load i32, ptr @hf_dcom_ipid, align 4
  %25 = call i32 @dissect_dcom_UUID(ptr noundef %0, i32 noundef %.098, ptr noundef %2, ptr noundef %3, ptr noundef %4, ptr noundef %5, i32 noundef %24, ptr noundef nonnull %8) #3
  %26 = load i32, ptr @hf_remact_authn_hint, align 4
  %27 = call i32 @dissect_ndr_uint32(ptr noundef %0, i32 noundef %25, ptr noundef %2, ptr noundef %3, ptr noundef %4, ptr noundef %5, i32 noundef %26, ptr noundef nonnull %9) #3
  %28 = call i32 @dissect_dcom_COMVERSION(ptr noundef %0, i32 noundef %27, ptr noundef %2, ptr noundef %3, ptr noundef %4, ptr noundef %5, ptr noundef nonnull %10, ptr noundef nonnull %11) #3
  %29 = call i32 @dissect_dcom_HRESULT(ptr noundef %0, i32 noundef %28, ptr noundef %2, ptr noundef %3, ptr noundef %4, ptr noundef %5, ptr noundef nonnull %12) #3
  %30 = call i32 @dissect_dcom_dcerpc_array_size(ptr noundef %0, i32 noundef %29, ptr noundef %2, ptr noundef %3, ptr noundef %4, ptr noundef %5, ptr noundef nonnull %13) #3
  %31 = load i32, ptr %13, align 4
  %32 = shl i32 %31, 2
  %33 = add i32 %32, %30
  %34 = add i32 %31, -1
  store i32 %34, ptr %13, align 4
  %.not100103 = icmp eq i32 %31, 0
  br i1 %.not100103, label %._crit_edge, label %.lr.ph

.lr.ph:                                           ; preds = %23, %40
  %.0105 = phi i32 [ %.1, %40 ], [ %33, %23 ]
  %.199104 = phi i32 [ %35, %40 ], [ %30, %23 ]
  %35 = call i32 @dissect_dcom_dcerpc_pointer(ptr noundef %0, i32 noundef %.199104, ptr noundef %2, ptr noundef %3, ptr noundef %4, ptr noundef %5, ptr noundef nonnull %7) #3
  %36 = load i32, ptr %7, align 4
  %.not102 = icmp eq i32 %36, 0
  br i1 %.not102, label %40, label %37

37:                                               ; preds = %.lr.ph
  %38 = load i32, ptr @hf_remact_interface_data, align 4
  %39 = call i32 @dissect_dcom_MInterfacePointer(ptr noundef %0, i32 noundef %.0105, ptr noundef %2, ptr noundef %3, ptr noundef %4, ptr noundef %5, i32 noundef %38, ptr noundef null) #3
  br label %40

40:                                               ; preds = %37, %.lr.ph
  %.1 = phi i32 [ %39, %37 ], [ %.0105, %.lr.ph ]
  %.pr = load i32, ptr %13, align 4
  %41 = add i32 %.pr, -1
  store i32 %41, ptr %13, align 4
  %.not100 = icmp eq i32 %.pr, 0
  br i1 %.not100, label %._crit_edge, label %.lr.ph, !llvm.loop !7

._crit_edge:                                      ; preds = %40, %23
  %.0.lcssa = phi i32 [ %33, %23 ], [ %.1, %40 ]
  %42 = call i32 @dissect_dcom_dcerpc_array_size(ptr noundef %0, i32 noundef %.0.lcssa, ptr noundef %2, ptr noundef %3, ptr noundef %4, ptr noundef %5, ptr noundef nonnull %13) #3
  %43 = load i32, ptr %13, align 4
  %44 = add i32 %43, -1
  store i32 %44, ptr %13, align 4
  %.not101106 = icmp eq i32 %43, 0
  br i1 %.not101106, label %._crit_edge111, label %.lr.ph110

.lr.ph110:                                        ; preds = %._crit_edge
  %45 = getelementptr inbounds nuw i8, ptr %2, i64 8
  br label %46

46:                                               ; preds = %.lr.ph110, %46
  %.097108 = phi i32 [ 1, %.lr.ph110 ], [ %51, %46 ]
  %.2107 = phi i32 [ %42, %.lr.ph110 ], [ %47, %46 ]
  %47 = call i32 @dissect_dcom_indexed_HRESULT(ptr noundef %0, i32 noundef %.2107, ptr noundef %2, ptr noundef %3, ptr noundef %4, ptr noundef %5, ptr noundef nonnull %12, i32 noundef %.097108) #3
  %48 = load ptr, ptr %45, align 8
  %49 = load i32, ptr %12, align 4
  %50 = call ptr @val_to_str(i32 noundef %49, ptr noundef nonnull @dcom_hresult_vals, ptr noundef nonnull @.str.27) #3
  call void (ptr, i32, ptr, ...) @col_append_fstr(ptr noundef %48, i32 noundef 25, ptr noundef nonnull @.str.26, ptr noundef %50, i32 noundef %.097108) #3
  %51 = add i32 %.097108, 1
  %52 = load i32, ptr %13, align 4
  %53 = add i32 %52, -1
  store i32 %53, ptr %13, align 4
  %.not101 = icmp eq i32 %52, 0
  br i1 %.not101, label %._crit_edge111, label %46, !llvm.loop !8

._crit_edge111:                                   ; preds = %46, %._crit_edge
  %.2.lcssa = phi i32 [ %42, %._crit_edge ], [ %47, %46 ]
  %54 = call i32 @dissect_dcom_HRESULT(ptr noundef %0, i32 noundef %.2.lcssa, ptr noundef %2, ptr noundef %3, ptr noundef %4, ptr noundef %5, ptr noundef nonnull %12) #3
  %55 = getelementptr inbounds nuw i8, ptr %2, i64 8
  %56 = load ptr, ptr %55, align 8
  %57 = load i32, ptr %12, align 4
  %58 = call ptr @val_to_str(i32 noundef %57, ptr noundef nonnull @dcom_hresult_vals, ptr noundef nonnull @.str.27) #3
  call void (ptr, i32, ptr, ...) @col_append_fstr(ptr noundef %56, i32 noundef 25, ptr noundef nonnull @.str.28, ptr noundef %58) #3
  ret i32 %54
}